target datalayout = "e-m:e-p270:32:32-p271:32:32-p272:64:64-i64:64-i128:128-f80:128-n8:16:32:64-S128"
target triple = "x86_64-pc-linux-gnu"

%struct.png_struct_def = type { [1 x %struct.__jmp_buf_tag], ptr, ptr, i64, ptr, ptr, ptr, ptr, ptr, ptr, ptr, ptr, ptr, i8, i8, i32, i32, i32, i32, %struct.z_stream_s, ptr, i32, i32, i32, i32, i32, i32, i32, i32, i32, i32, i32, i32, i32, i32, i32, i32, i32, i32, i32, i32, i32, i64, i32, i32, i32, ptr, ptr, ptr, ptr, i64, i32, i32, ptr, i16, i32, i16, i8, i8, i8, i8, i8, i8, i8, i8, i8, i8, i8, i8, i8, i8, i8, i16, i8, i32, %struct.png_color_16_struct, %struct.png_color_16_struct, ptr, i32, i32, %struct.png_xy, i32, i32, i32, i32, i32, ptr, ptr, ptr, ptr, ptr, ptr, %struct.png_color_8_struct, %struct.png_color_8_struct, ptr, %struct.png_color_16_struct, ptr, ptr, ptr, ptr, ptr, ptr, ptr, ptr, ptr, i32, i32, i64, i64, i64, i64, i32, i32, ptr, ptr, i32, [29 x i8], i32, ptr, ptr, i32, i32, ptr, i8, i8, i16, i16, ptr, i32, i8, ptr, ptr, ptr, ptr, ptr, ptr, ptr, i8, i32, i32, i32, i64, %struct.png_unknown_chunk_t, i64, ptr, i64, i32, i32, ptr, [4 x ptr] }
%struct.__jmp_buf_tag = type { [8 x i64], i32, %struct.__sigset_t }
%struct.__sigset_t = type { [16 x i64] }
%struct.z_stream_s = type { ptr, i32, i64, ptr, i32, i64, ptr, ptr, ptr, ptr, ptr, i32, i64, i64 }
%struct.png_xy = type { i32, i32, i32, i32, i32, i32, i32, i32 }
%struct.png_color_8_struct = type { i8, i8, i8, i8, i8 }
%struct.png_color_16_struct = type { i8, i16, i16, i16, i16 }
%struct.png_unknown_chunk_t = type { [5 x i8], ptr, i64, i8 }

@png_digit = internal constant [16 x i8] c"0123456789ABCDEF", align 16

; Function Attrs: nounwind uwtable
define internal void @png_format_buffer(ptr noalias noundef %0, ptr noundef %1, ptr noundef %2) #1 {
  %4 = alloca ptr, align 8
  %5 = alloca ptr, align 8
  %6 = alloca ptr, align 8
  %7 = alloca i32, align 4
  %8 = alloca i32, align 4
  %9 = alloca i32, align 4
  %10 = alloca i32, align 4
  %11 = alloca i32, align 4
  store ptr %0, ptr %4, align 8, !tbaa !3
  store ptr %1, ptr %5, align 8, !tbaa !8
  store ptr %2, ptr %6, align 8, !tbaa !8
  call void @llvm.lifetime.start.p0(i64 4, ptr %7) #10
  %12 = load ptr, ptr %4, align 8, !tbaa !3
  %13 = getelementptr inbounds nuw %struct.png_struct_def, ptr %12, i32 0, i32 45
  %14 = load i32, ptr %13, align 8, !tbaa !40
  store i32 %14, ptr %7, align 4, !tbaa !31
  call void @llvm.lifetime.start.p0(i64 4, ptr %8) #10
  store i32 0, ptr %8, align 4, !tbaa !31
  call void @llvm.lifetime.start.p0(i64 4, ptr %9) #10
  store i32 24, ptr %9, align 4, !tbaa !31
  br label %15

15:                                               ; preds = %82, %3
  %16 = load i32, ptr %9, align 4, !tbaa !31
  %17 = icmp sge i32 %16, 0
  br i1 %17, label %18, label %83

18:                                               ; preds = %15
  call void @llvm.lifetime.start.p0(i64 4, ptr %10) #10
  %19 = load i32, ptr %7, align 4, !tbaa !31
  %20 = load i32, ptr %9, align 4, !tbaa !31
  %21 = lshr i32 %19, %20
  %22 = and i32 %21, 255
  store i32 %22, ptr %10, align 4, !tbaa !31
  %23 = load i32, ptr %9, align 4, !tbaa !31
  %24 = sub nsw i32 %23, 8
  store i32 %24, ptr %9, align 4, !tbaa !31
  %25 = load i32, ptr %10, align 4, !tbaa !31
  %26 = icmp slt i32 %25, 65
  br i1 %26, label %38, label %27

27:                                               ; preds = %18
  %28 = load i32, ptr %10, align 4, !tbaa !31
  %29 = icmp sgt i32 %28, 122
  br i1 %29, label %38, label %30

30:                                               ; preds = %27
  %31 = load i32, ptr %10, align 4, !tbaa !31
  %32 = icmp sgt i32 %31, 90
  br i1 %32, label %33, label %36

33:                                               ; preds = %30
  %34 = load i32, ptr %10, align 4, !tbaa !31
  %35 = icmp slt i32 %34, 97
  br label %36

36:                                               ; preds = %33, %30
  %37 = phi i1 [ false, %30 ], [ %35, %33 ]
  br label %38

38:                                               ; preds = %36, %27, %18
  %39 = phi i1 [ true, %27 ], [ true, %18 ], [ %37, %36 ]
  %40 = zext i1 %39 to i32
  %41 = icmp ne i32 %40, 0
  br i1 %41, label %42, label %74

42:                                               ; preds = %38
  %43 = load ptr, ptr %5, align 8, !tbaa !8
  %44 = load i32, ptr %8, align 4, !tbaa !31
  %45 = add nsw i32 %44, 1
  store i32 %45, ptr %8, align 4, !tbaa !31
  %46 = sext i32 %44 to i64
  %47 = getelementptr inbounds i8, ptr %43, i64 %46
  store i8 91, ptr %47, align 1, !tbaa !28
  %48 = load i32, ptr %10, align 4, !tbaa !31
  %49 = and i32 %48, 240
  %50 = ashr i32 %49, 4
  %51 = sext i32 %50 to i64
  %52 = getelementptr inbounds [16 x i8], ptr @png_digit, i64 0, i64 %51
  %53 = load i8, ptr %52, align 1, !tbaa !28
  %54 = load ptr, ptr %5, align 8, !tbaa !8
  %55 = load i32, ptr %8, align 4, !tbaa !31
  %56 = add nsw i32 %55, 1
  store i32 %56, ptr %8, align 4, !tbaa !31
  %57 = sext i32 %55 to i64
  %58 = getelementptr inbounds i8, ptr %54, i64 %57
  store i8 %53, ptr %58, align 1, !tbaa !28
  %59 = load i32, ptr %10, align 4, !tbaa !31
  %60 = and i32 %59, 15
  %61 = sext i32 %60 to i64
  %62 = getelementptr inbounds [16 x i8], ptr @png_digit, i64 0, i64 %61
  %63 = load i8, ptr %62, align 1, !tbaa !28
  %64 = load ptr, ptr %5, align 8, !tbaa !8
  %65 = load i32, ptr %8, align 4, !tbaa !31
  %66 = add nsw i32 %65, 1
  store i32 %66, ptr %8, align 4, !tbaa !31
  %67 = sext i32 %65 to i64
  %68 = getelementptr inbounds i8, ptr %64, i64 %67
  store i8 %63, ptr %68, align 1, !tbaa !28
  %69 = load ptr, ptr %5, align 8, !tbaa !8
  %70 = load i32, ptr %8, align 4, !tbaa !31
  %71 = add nsw i32 %70, 1
  store i32 %71, ptr %8, align 4, !tbaa !31
  %72 = sext i32 %70 to i64
  %73 = getelementptr inbounds i8, ptr %69, i64 %72
  store i8 93, ptr %73, align 1, !tbaa !28
  br label %82

74:                                               ; preds = %38
  %75 = load i32, ptr %10, align 4, !tbaa !31
  %76 = trunc i32 %75 to i8
  %77 = load ptr, ptr %5, align 8, !tbaa !8
  %78 = load i32, ptr %8, align 4, !tbaa !31
  %79 = add nsw i32 %78, 1
  store i32 %79, ptr %8, align 4, !tbaa !31
  %80 = sext i32 %78 to i64
  %81 = getelementptr inbounds i8, ptr %77, i64 %80
  store i8 %76, ptr %81, align 1, !tbaa !28
  br label %82

82:                                               ; preds = %74, %42
  call void @llvm.lifetime.end.p0(i64 4, ptr %10) #10
  br label %15, !llvm.loop !41

83:                                               ; preds = %15
  %84 = load ptr, ptr %6, align 8, !tbaa !8
  %85 = icmp eq ptr %84, null
  br i1 %85, label %86, label %91

86:                                               ; preds = %83
  %87 = load ptr, ptr %5, align 8, !tbaa !8
  %88 = load i32, ptr %8, align 4, !tbaa !31
  %89 = sext i32 %88 to i64
  %90 = getelementptr inbounds i8, ptr %87, i64 %89
  store i8 0, ptr %90, align 1, !tbaa !28
  br label %132

91:                                               ; preds = %83
  call void @llvm.lifetime.start.p0(i64 4, ptr %11) #10
  store i32 0, ptr %11, align 4, !tbaa !31
  %92 = load ptr, ptr %5, align 8, !tbaa !8
  %93 = load i32, ptr %8, align 4, !tbaa !31
  %94 = add nsw i32 %93, 1
  store i32 %94, ptr %8, align 4, !tbaa !31
  %95 = sext i32 %93 to i64
  %96 = getelementptr inbounds i8, ptr %92, i64 %95
  store i8 58, ptr %96, align 1, !tbaa !28
  %97 = load ptr, ptr %5, align 8, !tbaa !8
  %98 = load i32, ptr %8, align 4, !tbaa !31
  %99 = add nsw i32 %98, 1
  store i32 %99, ptr %8, align 4, !tbaa !31
  %100 = sext i32 %98 to i64
  %101 = getelementptr inbounds i8, ptr %97, i64 %100
  store i8 32, ptr %101, align 1, !tbaa !28
  br label %102

102:                                              ; preds = %115, %91
  %103 = load i32, ptr %11, align 4, !tbaa !31
  %104 = icmp slt i32 %103, 195
  br i1 %104, label %105, label %113

105:                                              ; preds = %102
  %106 = load ptr, ptr %6, align 8, !tbaa !8
  %107 = load i32, ptr %11, align 4, !tbaa !31
  %108 = sext i32 %107 to i64
  %109 = getelementptr inbounds i8, ptr %106, i64 %108
  %110 = load i8, ptr %109, align 1, !tbaa !28
  %111 = sext i8 %110 to i32
  %112 = icmp ne i32 %111, 0
  br label %113

113:                                              ; preds = %105, %102
  %114 = phi i1 [ false, %102 ], [ %112, %105 ]
  br i1 %114, label %115, label %127

115:                                              ; preds = %113
  %116 = load ptr, ptr %6, align 8, !tbaa !8
  %117 = load i32, ptr %11, align 4, !tbaa !31
  %118 = add nsw i32 %117, 1
  store i32 %118, ptr %11, align 4, !tbaa !31
  %119 = sext i32 %117 to i64
  %120 = getelementptr inbounds i8, ptr %116, i64 %119
  %121 = load i8, ptr %120, align 1, !tbaa !28
  %122 = load ptr, ptr %5, align 8, !tbaa !8
  %123 = load i32, ptr %8, align 4, !tbaa !31
  %124 = add nsw i32 %123, 1
  store i32 %124, ptr %8, align 4, !tbaa !31
  %125 = sext i32 %123 to i64
  %126 = getelementptr inbounds i8, ptr %122, i64 %125
  store i8 %121, ptr %126, align 1, !tbaa !28
  br label %102, !llvm.loop !42

127:                                              ; preds = %113
  %128 = load ptr, ptr %5, align 8, !tbaa !8
  %129 = load i32, ptr %8, align 4, !tbaa !31
  %130 = sext i32 %129 to i64
  %131 = getelementptr inbounds i8, ptr %128, i64 %130
  store i8 0, ptr %131, align 1, !tbaa !28
  call void @llvm.lifetime.end.p0(i64 4, ptr %11) #10
  br label %132

132:                                              ; preds = %127, %86
  call void @llvm.lifetime.end.p0(i64 4, ptr %9) #10
  call void @llvm.lifetime.end.p0(i64 4, ptr %8) #10
  call void @llvm.lifetime.end.p0(i64 4, ptr %7) #10
  ret void
}

; Function Attrs: nounwind uwtable
define void @png_warning(ptr noalias noundef %0, ptr noundef %1) #1 {
  %3 = alloca ptr, align 8
  %4 = alloca ptr, align 8
  %5 = alloca i32, align 4
  store ptr %0, ptr %3, align 8, !tbaa !3
  store ptr %1, ptr %4, align 8, !tbaa !8
  call void @llvm.lifetime.start.p0(i64 4, ptr %5) #10
  store i32 0, ptr %5, align 4, !tbaa !31
  %6 = load ptr, ptr %3, align 8, !tbaa !3
  %7 = icmp ne ptr %6, null
  br i1 %7, label %8, label %32

8:                                                ; preds = %2
  %9 = load ptr, ptr %4, align 8, !tbaa !8
  %10 = load i8, ptr %9, align 1, !tbaa !28
  %11 = sext i8 %10 to i32
  %12 = icmp eq i32 %11, 35
  br i1 %12, label %13, label %31

13:                                               ; preds = %8
  store i32 1, ptr %5, align 4, !tbaa !31
  br label %14

14:                                               ; preds = %27, %13
  %15 = load i32, ptr %5, align 4, !tbaa !31
  %16 = icmp slt i32 %15, 15
  br i1 %16, label %17, label %30

17:                                               ; preds = %14
  %18 = load ptr, ptr %4, align 8, !tbaa !8
  %19 = load i32, ptr %5, align 4, !tbaa !31
  %20 = sext i32 %19 to i64
  %21 = getelementptr inbounds i8, ptr %18, i64 %20
  %22 = load i8, ptr %21, align 1, !tbaa !28
  %23 = sext i8 %22 to i32
  %24 = icmp eq i32 %23, 32
  br i1 %24, label %25, label %26

25:                                               ; preds = %17
  br label %30

26:                                               ; preds = %17
  br label %27

27:                                               ; preds = %26
  %28 = load i32, ptr %5, align 4, !tbaa !31
  %29 = add nsw i32 %28, 1
  store i32 %29, ptr %5, align 4, !tbaa !31
  br label %14, !llvm.loop !33

30:                                               ; preds = %25, %14
  br label %31

31:                                               ; preds = %30, %8
  br label %32

32:                                               ; preds = %31, %2
  %33 = load ptr, ptr %3, align 8, !tbaa !3
  %34 = icmp ne ptr %33, null
  br i1 %34, label %35, label %49

35:                                               ; preds = %32
  %36 = load ptr, ptr %3, align 8, !tbaa !3
  %37 = getelementptr inbounds nuw %struct.png_struct_def, ptr %36, i32 0, i32 5
  %38 = load ptr, ptr %37, align 8, !tbaa !34
  %39 = icmp ne ptr %38, null
  br i1 %39, label %40, label %49

40:                                               ; preds = %35
  %41 = load ptr, ptr %3, align 8, !tbaa !3
  %42 = getelementptr inbounds nuw %struct.png_struct_def, ptr %41, i32 0, i32 5
  %43 = load ptr, ptr %42, align 8, !tbaa !34
  %44 = load ptr, ptr %3, align 8, !tbaa !3
  %45 = load ptr, ptr %4, align 8, !tbaa !8
  %46 = load i32, ptr %5, align 4, !tbaa !31
  %47 = sext i32 %46 to i64
  %48 = getelementptr inbounds i8, ptr %45, i64 %47
  call void %43(ptr noundef %44, ptr noundef %48)
  br label %55

49:                                               ; preds = %35, %32
  %50 = load ptr, ptr %3, align 8, !tbaa !3
  %51 = load ptr, ptr %4, align 8, !tbaa !8
  %52 = load i32, ptr %5, align 4, !tbaa !31
  %53 = sext i32 %52 to i64
  %54 = getelementptr inbounds i8, ptr %51, i64 %53
  call void @png_default_warning(ptr noundef %50, ptr noundef %54)
  br label %55

55:                                               ; preds = %49, %40
  call void @llvm.lifetime.end.p0(i64 4, ptr %5) #10
  ret void
}

; Function Attrs: nounwind uwtable
define void @png_chunk_warning(ptr noalias noundef %0, ptr noundef %1) #1 {
  %3 = alloca ptr, align 8
  %4 = alloca ptr, align 8
  %5 = alloca [214 x i8], align 16
  store ptr %0, ptr %3, align 8, !tbaa !3
  store ptr %1, ptr %4, align 8, !tbaa !8
  call void @llvm.lifetime.start.p0(i64 214, ptr %5) #10
  %6 = load ptr, ptr %3, align 8, !tbaa !3
  %7 = icmp eq ptr %6, null
  br i1 %7, label %8, label %11

8:                                                ; preds = %2
  %9 = load ptr, ptr %3, align 8, !tbaa !3
  %10 = load ptr, ptr %4, align 8, !tbaa !8
  call void @png_warning(ptr noundef %9, ptr noundef %10)
  br label %17

11:                                               ; preds = %2
  %12 = load ptr, ptr %3, align 8, !tbaa !3
  %13 = getelementptr inbounds [214 x i8], ptr %5, i64 0, i64 0
  %14 = load ptr, ptr %4, align 8, !tbaa !8
  call void @png_format_buffer(ptr noundef %12, ptr noundef %13, ptr noundef %14)
  %15 = load ptr, ptr %3, align 8, !tbaa !3
  %16 = getelementptr inbounds [214 x i8], ptr %5, i64 0, i64 0
  call void @png_warning(ptr noundef %15, ptr noundef %16)
  br label %17

17:                                               ; preds = %11, %8
  call void @llvm.lifetime.end.p0(i64 214, ptr %5) #10
  ret void
}