; Function Attrs: nounwind uwtable
define void @png_chunk_warning(ptr noalias noundef %0, ptr noundef %1) local_unnamed_addr #5 {
  %3 = alloca [214 x i8], align 16
  call void @llvm.lifetime.start.p0(i64 214, ptr nonnull %3) #21
  %4 = icmp eq ptr %0, null
  br i1 %4, label %5, label %6

5:                                                ; preds = %2
  tail call fastcc void @png_default_warning(ptr noundef %1)
  br label %png_warning.exit

6:                                                ; preds = %2
  %7 = getelementptr i8, ptr %0, i64 544
  %.val = load i32, ptr %7, align 8, !tbaa !38
  br label %8

8:                                                ; preds = %37, %6
  %.0382.i = phi i32 [ 0, %6 ], [ %.1.i, %37 ]
  %.0391.i = phi i32 [ 24, %6 ], [ %11, %37 ]
  %9 = lshr i32 %.val, %.0391.i
  %10 = and i32 %9, 255
  %11 = add nsw i32 %.0391.i, -8
  %12 = add nsw i32 %10, -123
  %or.cond.i = icmp ult i32 %12, -58
  %13 = add nsw i32 %10, -91
  %14 = icmp ult i32 %13, 6
  %15 = select i1 %or.cond.i, i1 true, i1 %14
  br i1 %15, label %16, label %32

16:                                               ; preds = %8
  %17 = sext i32 %.0382.i to i64
  %18 = getelementptr inbounds i8, ptr %3, i64 %17
  store i8 91, ptr %18, align 1, !tbaa !24
  %19 = lshr i32 %9, 4
  %20 = and i32 %19, 15
  %21 = zext nneg i32 %20 to i64
  %22 = getelementptr inbounds nuw [16 x i8], ptr @png_digit, i64 0, i64 %21
  %23 = load i8, ptr %22, align 1, !tbaa !24
  %24 = getelementptr i8, ptr %18, i64 1
  store i8 %23, ptr %24, align 1, !tbaa !24
  %25 = and i32 %9, 15
  %26 = zext nneg i32 %25 to i64
  %27 = getelementptr inbounds nuw [16 x i8], ptr @png_digit, i64 0, i64 %26
  %28 = load i8, ptr %27, align 1, !tbaa !24
  %29 = getelementptr i8, ptr %18, i64 2
  store i8 %28, ptr %29, align 1, !tbaa !24
  %30 = add nsw i32 %.0382.i, 4
  %31 = getelementptr i8, ptr %18, i64 3
  store i8 93, ptr %31, align 1, !tbaa !24
  br label %37

32:                                               ; preds = %8
  %33 = trunc i32 %9 to i8
  %34 = add nsw i32 %.0382.i, 1
  %35 = sext i32 %.0382.i to i64
  %36 = getelementptr inbounds i8, ptr %3, i64 %35
  store i8 %33, ptr %36, align 1, !tbaa !24
  br label %37

37:                                               ; preds = %32, %16
  %.1.i = phi i32 [ %30, %16 ], [ %34, %32 ]
  %.not11.i = icmp eq i32 %.0391.i, 0
  br i1 %.not11.i, label %38, label %8, !llvm.loop !42

38:                                               ; preds = %37
  %39 = icmp eq ptr %1, null
  %40 = sext i32 %.1.i to i64
  %41 = getelementptr inbounds i8, ptr %3, i64 %40
  br i1 %39, label %42, label %43

42:                                               ; preds = %38
  store i8 0, ptr %41, align 1, !tbaa !24
  br label %56

43:                                               ; preds = %38
  store i8 58, ptr %41, align 1, !tbaa !24
  %44 = add i32 %.1.i, 2
  %45 = getelementptr i8, ptr %41, i64 1
  store i8 32, ptr %45, align 1, !tbaa !24
  %46 = sext i32 %44 to i64
  %47 = add i32 %.1.i, 197
  br label %48

48:                                               ; preds = %51, %43
  %indvars.iv5.i = phi i64 [ %46, %43 ], [ %indvars.iv.next6.i, %51 ]
  %indvars.iv.i = phi i64 [ 0, %43 ], [ %indvars.iv.next.i, %51 ]
  %49 = getelementptr inbounds nuw i8, ptr %1, i64 %indvars.iv.i
  %50 = load i8, ptr %49, align 1, !tbaa !24
  %.not.i = icmp eq i8 %50, 0
  br i1 %.not.i, label %.critedge.split.loop.exit12.i, label %51

51:                                               ; preds = %48
  %indvars.iv.next.i = add nuw nsw i64 %indvars.iv.i, 1
  %indvars.iv.next6.i = add nsw i64 %indvars.iv5.i, 1
  %52 = getelementptr inbounds i8, ptr %3, i64 %indvars.iv5.i
  store i8 %50, ptr %52, align 1, !tbaa !24
  %exitcond.not.i = icmp eq i64 %indvars.iv.next.i, 195
  br i1 %exitcond.not.i, label %.critedge.i, label %48, !llvm.loop !43

.critedge.split.loop.exit12.i:                    ; preds = %48
  %53 = trunc nsw i64 %indvars.iv5.i to i32
  br label %.critedge.i

.critedge.i:                                      ; preds = %51, %.critedge.split.loop.exit12.i
  %.2.lcssa.i = phi i32 [ %53, %.critedge.split.loop.exit12.i ], [ %47, %51 ]
  %54 = sext i32 %.2.lcssa.i to i64
  %55 = getelementptr inbounds i8, ptr %3, i64 %54
  store i8 0, ptr %55, align 1, !tbaa !24
  br label %56

56:                                               ; preds = %.critedge.i, %42
  tail call void @llvm.experimental.noalias.scope.decl(metadata !44)
  %57 = load i8, ptr %3, align 16, !tbaa !24, !noalias !44
  %58 = icmp eq i8 %57, 35
  br i1 %58, label %.preheader.i, label %.thread20.i

.preheader.i:                                     ; preds = %56, %62
  %indvars.iv.i7 = phi i64 [ %indvars.iv.next.i8, %62 ], [ 1, %56 ]
  %59 = getelementptr inbounds nuw i8, ptr %3, i64 %indvars.iv.i7
  %60 = load i8, ptr %59, align 1, !tbaa !24, !noalias !44
  %61 = icmp eq i8 %60, 32
  br i1 %61, label %.thread20.loopexit.i, label %62

62:                                               ; preds = %.preheader.i
  %indvars.iv.next.i8 = add nuw nsw i64 %indvars.iv.i7, 1
  %exitcond.not.i9 = icmp eq i64 %indvars.iv.next.i8, 15
  br i1 %exitcond.not.i9, label %.thread20.loopexit.i, label %.preheader.i, !llvm.loop !28

.thread20.loopexit.i:                             ; preds = %62, %.preheader.i
  %.022.ph.i = phi i64 [ 15, %62 ], [ %indvars.iv.i7, %.preheader.i ]
  %63 = and i64 %.022.ph.i, 4294967295
  br label %.thread20.i

.thread20.i:                                      ; preds = %.thread20.loopexit.i, %56
  %.022.i = phi i64 [ 0, %56 ], [ %63, %.thread20.loopexit.i ]
  %64 = getelementptr inbounds nuw i8, ptr %0, i64 232
  %65 = load ptr, ptr %64, align 8, !tbaa !29, !alias.scope !44
  %.not17.i = icmp eq ptr %65, null
  %66 = getelementptr inbounds nuw i8, ptr %3, i64 %.022.i
  br i1 %.not17.i, label %.split14.i, label %67

.split14.i:                                       ; preds = %.thread20.i
  call fastcc void @png_default_warning(ptr noundef nonnull %66)
  br label %png_warning.exit

67:                                               ; preds = %.thread20.i
  call void %65(ptr noundef nonnull %0, ptr noundef nonnull %66) #21
  br label %png_warning.exit

png_warning.exit:                                 ; preds = %67, %.split14.i, %5
  call void @llvm.lifetime.end.p0(i64 214, ptr nonnull %3) #21
  ret void
}